; Function Attrs: nounwind uwtable
define ptr @l_Lean_Elab_Command_checkValidInductiveModifier___at_Lean_Elab_Command_elabInductives___spec__2___lambda__1(ptr noundef %0, ptr readnone captures(none) %1, ptr noundef %2, ptr noundef %3, ptr noundef %4, ptr noundef %5, ptr noundef %6, ptr noundef %7, ptr noundef %8) local_unnamed_addr #1 {
  %10 = tail call zeroext i8 @l_Lean_Elab_Modifiers_isPartial(ptr noundef %0) #5
  %11 = icmp eq i8 %10, 0
  br i1 %11, label %12, label %28

12:                                               ; preds = %9
  %13 = ptrtoint ptr %2 to i64
  %14 = and i64 %13, 1
  %.not = icmp eq i64 %14, 0
  br i1 %.not, label %15, label %lean_dec.exit

15:                                               ; preds = %12
  %16 = load i32, ptr %2, align 4, !tbaa !8
  %17 = icmp sgt i32 %16, 1
  br i1 %17, label %18, label %20, !prof !11

18:                                               ; preds = %15
  %19 = add nsw i32 %16, -1
  store i32 %19, ptr %2, align 4, !tbaa !8
  br label %lean_dec.exit

20:                                               ; preds = %15
  %.not.i = icmp eq i32 %16, 0
  br i1 %.not.i, label %lean_dec.exit, label %21

21:                                               ; preds = %20
  tail call void @lean_dec_ref_cold(ptr noundef nonnull %2) #5
  br label %lean_dec.exit

lean_dec.exit:                                    ; preds = %21, %20, %18, %12
  tail call void @lean_inc_heartbeat() #5
  %22 = tail call noalias ptr @mi_malloc_small(i64 noundef 24) #5
  %23 = icmp eq ptr %22, null
  br i1 %23, label %24, label %lean_alloc_ctor.exit

24:                                               ; preds = %lean_dec.exit
  tail call void @lean_internal_panic_out_of_memory() #6
  unreachable

lean_alloc_ctor.exit:                             ; preds = %lean_dec.exit
  %25 = getelementptr inbounds nuw i8, ptr %22, i64 4
  store i32 1, ptr %22, align 4, !tbaa !8
  store i32 131096, ptr %25, align 4
  %26 = getelementptr inbounds nuw i8, ptr %22, i64 8
  store ptr inttoptr (i64 1 to ptr), ptr %26, align 8, !tbaa !12
  %27 = getelementptr inbounds nuw i8, ptr %22, i64 16
  store ptr %8, ptr %27, align 8, !tbaa !12
  br label %31

28:                                               ; preds = %9
  %29 = load ptr, ptr @l_Lean_Elab_Command_checkValidInductiveModifier___rarg___lambda__1___closed__2, align 8, !tbaa !12
  %30 = tail call ptr @l_Lean_throwError___at_Lean_Elab_Term_throwErrorIfErrors___spec__1(ptr noundef %29, ptr noundef %2, ptr noundef %3, ptr noundef %4, ptr noundef %5, ptr noundef %6, ptr noundef %7, ptr noundef %8) #5
  br label %31

31:                                               ; preds = %28, %lean_alloc_ctor.exit
  %.0 = phi ptr [ %22, %lean_alloc_ctor.exit ], [ %30, %28 ]
  ret ptr %.0
}